(dp0
S'11663'
p1
I1135
sS'12002'
p2
I1054
sS'11875'
p3
I1119
sS'12297'
p4
I1042
sS'11158'
p5
I950
sS'12305'
p6
I1137
sS'11863'
p7
I1131
sS'12427'
p8
I1275
sS'12192'
p9
I909
sS'11890'
p10
I1129
sS'12134'
p11
I1253
sS'11497'
p12
I1134
s.