(dp0
S'11663'
p1
(I277
I560
tp2
sS'12002'
p3
(I396
I809
tp4
sS'11875'
p5
(I601
I991
tp6
sS'12297'
p7
(I600
I996
tp8
sS'11158'
p9
(I377
I744
tp10
sS'12305'
p11
(I446
I1469
tp12
sS'11863'
p13
(I204
I518
tp14
sS'12427'
p15
(I351
I573
tp16
sS'12192'
p17
(I800
I1472
tp18
sS'11890'
p19
(I593
I893
tp20
sS'12134'
p21
(I478
I1052
tp22
sS'11497'
p23
(I251
I565
tp24
s.